target datalayout = "e-m:e-p270:32:32-p271:32:32-p272:64:64-i64:64-i128:128-f80:128-n8:16:32:64-S128"
target triple = "x86_64-pc-linux-gnu"

%struct.AVCodecContext = type { ptr, i32, i32, ptr, i32, i32, ptr, ptr, ptr, i64, i32, i32, ptr, i32, %struct.AVRational, %struct.AVRational, %struct.AVRational, i32, i32, i32, i32, i32, %struct.AVRational, i32, i32, i32, i32, i32, i32, i32, i32, i32, i32, i32, ptr, ptr, i32, float, float, float, float, float, float, float, float, float, i32, i32, i32, i32, i32, i32, i32, i32, i32, i32, i32, i32, ptr, ptr, ptr, i32, i32, i32, i32, i32, i32, i32, i32, i32, i32, %struct.AVChannelLayout, i32, i32, i32, i32, i32, i32, i32, i32, ptr, i32, i32, i32, float, float, i32, i32, i32, i32, i32, ptr, i64, i64, float, float, i32, i32, ptr, ptr, i32, i32, i32, i32, i32, ptr, ptr, ptr, ptr, i32, i32, [8 x i64], i32, i32, i32, i32, i32, i32, i32, ptr, ptr, i32, i32, i32, i32, i32, i32, i32, i32, i32, i32, ptr, ptr, i32, i32, ptr, ptr, ptr, ptr, i32, i32, i64, i32, i32, i64, ptr, i64, ptr, i32, ptr, i32 }
%struct.AVRational = type { i32, i32 }
%struct.AVChannelLayout = type { i32, i32, %union.anon.0, ptr }
%union.anon.0 = type { i64 }
%struct.RALFContext = type { i32, i32, [3 x %struct.VLCSet], [2 x [4096 x i32]], i32, i32, i32, [64 x i32], [2 x i32], i32, [4096 x i32], [4096 x i32], [16384 x i8], i32 }
%struct.VLCSet = type { %struct.VLC, %struct.VLC, %struct.VLC, [10 x [11 x %struct.VLC]], [15 x %struct.VLC], [125 x %struct.VLC] }
%struct.VLC = type { i32, ptr, i32, i32 }

; Function Attrs: cold nounwind optsize uwtable
define internal i32 @decode_close(ptr noundef %0) #0 {
  %2 = alloca ptr, align 8
  %3 = alloca ptr, align 8
  %4 = alloca i32, align 4
  %5 = alloca i32, align 4
  %6 = alloca i32, align 4
  store ptr %0, ptr %2, align 8, !tbaa !4
  call void @llvm.lifetime.start.p0(i64 8, ptr %3) #10
  %7 = load ptr, ptr %2, align 8, !tbaa !4
  %8 = getelementptr inbounds nuw %struct.AVCodecContext, ptr %7, i32 0, i32 6
  %9 = load ptr, ptr %8, align 8, !tbaa !9
  store ptr %9, ptr %3, align 8, !tbaa !29
  call void @llvm.lifetime.start.p0(i64 4, ptr %4) #10
  call void @llvm.lifetime.start.p0(i64 4, ptr %5) #10
  call void @llvm.lifetime.start.p0(i64 4, ptr %6) #10
  store i32 0, ptr %4, align 4, !tbaa !36
  br label %10

10:                                               ; preds = %94, %1
  %11 = load i32, ptr %4, align 4, !tbaa !36
  %12 = icmp slt i32 %11, 3
  br i1 %12, label %13, label %97

13:                                               ; preds = %10
  %14 = load ptr, ptr %3, align 8, !tbaa !29
  %15 = getelementptr inbounds nuw %struct.RALFContext, ptr %14, i32 0, i32 2
  %16 = load i32, ptr %4, align 4, !tbaa !36
  %17 = sext i32 %16 to i64
  %18 = getelementptr inbounds [3 x %struct.VLCSet], ptr %15, i64 0, i64 %17
  %19 = getelementptr inbounds nuw %struct.VLCSet, ptr %18, i32 0, i32 0
  call void @ff_vlc_free(ptr noundef %19)
  %20 = load ptr, ptr %3, align 8, !tbaa !29
  %21 = getelementptr inbounds nuw %struct.RALFContext, ptr %20, i32 0, i32 2
  %22 = load i32, ptr %4, align 4, !tbaa !36
  %23 = sext i32 %22 to i64
  %24 = getelementptr inbounds [3 x %struct.VLCSet], ptr %21, i64 0, i64 %23
  %25 = getelementptr inbounds nuw %struct.VLCSet, ptr %24, i32 0, i32 1
  call void @ff_vlc_free(ptr noundef %25)
  %26 = load ptr, ptr %3, align 8, !tbaa !29
  %27 = getelementptr inbounds nuw %struct.RALFContext, ptr %26, i32 0, i32 2
  %28 = load i32, ptr %4, align 4, !tbaa !36
  %29 = sext i32 %28 to i64
  %30 = getelementptr inbounds [3 x %struct.VLCSet], ptr %27, i64 0, i64 %29
  %31 = getelementptr inbounds nuw %struct.VLCSet, ptr %30, i32 0, i32 2
  call void @ff_vlc_free(ptr noundef %31)
  store i32 0, ptr %5, align 4, !tbaa !36
  br label %32

32:                                               ; preds = %56, %13
  %33 = load i32, ptr %5, align 4, !tbaa !36
  %34 = icmp slt i32 %33, 10
  br i1 %34, label %35, label %59

35:                                               ; preds = %32
  store i32 0, ptr %6, align 4, !tbaa !36
  br label %36

36:                                               ; preds = %52, %35
  %37 = load i32, ptr %6, align 4, !tbaa !36
  %38 = icmp slt i32 %37, 11
  br i1 %38, label %39, label %55

39:                                               ; preds = %36
  %40 = load ptr, ptr %3, align 8, !tbaa !29
  %41 = getelementptr inbounds nuw %struct.RALFContext, ptr %40, i32 0, i32 2
  %42 = load i32, ptr %4, align 4, !tbaa !36
  %43 = sext i32 %42 to i64
  %44 = getelementptr inbounds [3 x %struct.VLCSet], ptr %41, i64 0, i64 %43
  %45 = getelementptr inbounds nuw %struct.VLCSet, ptr %44, i32 0, i32 3
  %46 = load i32, ptr %5, align 4, !tbaa !36
  %47 = sext i32 %46 to i64
  %48 = getelementptr inbounds [10 x [11 x %struct.VLC]], ptr %45, i64 0, i64 %47
  %49 = load i32, ptr %6, align 4, !tbaa !36
  %50 = sext i32 %49 to i64
  %51 = getelementptr inbounds [11 x %struct.VLC], ptr %48, i64 0, i64 %50
  call void @ff_vlc_free(ptr noundef %51)
  br label %52

52:                                               ; preds = %39
  %53 = load i32, ptr %6, align 4, !tbaa !36
  %54 = add nsw i32 %53, 1
  store i32 %54, ptr %6, align 4, !tbaa !36
  br label %36, !llvm.loop !66

55:                                               ; preds = %36
  br label %56

56:                                               ; preds = %55
  %57 = load i32, ptr %5, align 4, !tbaa !36
  %58 = add nsw i32 %57, 1
  store i32 %58, ptr %5, align 4, !tbaa !36
  br label %32, !llvm.loop !67

59:                                               ; preds = %32
  store i32 0, ptr %5, align 4, !tbaa !36
  br label %60

60:                                               ; preds = %73, %59
  %61 = load i32, ptr %5, align 4, !tbaa !36
  %62 = icmp slt i32 %61, 15
  br i1 %62, label %63, label %76

63:                                               ; preds = %60
  %64 = load ptr, ptr %3, align 8, !tbaa !29
  %65 = getelementptr inbounds nuw %struct.RALFContext, ptr %64, i32 0, i32 2
  %66 = load i32, ptr %4, align 4, !tbaa !36
  %67 = sext i32 %66 to i64
  %68 = getelementptr inbounds [3 x %struct.VLCSet], ptr %65, i64 0, i64 %67
  %69 = getelementptr inbounds nuw %struct.VLCSet, ptr %68, i32 0, i32 4
  %70 = load i32, ptr %5, align 4, !tbaa !36
  %71 = sext i32 %70 to i64
  %72 = getelementptr inbounds [15 x %struct.VLC], ptr %69, i64 0, i64 %71
  call void @ff_vlc_free(ptr noundef %72)
  br label %73

73:                                               ; preds = %63
  %74 = load i32, ptr %5, align 4, !tbaa !36
  %75 = add nsw i32 %74, 1
  store i32 %75, ptr %5, align 4, !tbaa !36
  br label %60, !llvm.loop !68

76:                                               ; preds = %60
  store i32 0, ptr %5, align 4, !tbaa !36
  br label %77

77:                                               ; preds = %90, %76
  %78 = load i32, ptr %5, align 4, !tbaa !36
  %79 = icmp slt i32 %78, 125
  br i1 %79, label %80, label %93

80:                                               ; preds = %77
  %81 = load ptr, ptr %3, align 8, !tbaa !29
  %82 = getelementptr inbounds nuw %struct.RALFContext, ptr %81, i32 0, i32 2
  %83 = load i32, ptr %4, align 4, !tbaa !36
  %84 = sext i32 %83 to i64
  %85 = getelementptr inbounds [3 x %struct.VLCSet], ptr %82, i64 0, i64 %84
  %86 = getelementptr inbounds nuw %struct.VLCSet, ptr %85, i32 0, i32 5
  %87 = load i32, ptr %5, align 4, !tbaa !36
  %88 = sext i32 %87 to i64
  %89 = getelementptr inbounds [125 x %struct.VLC], ptr %86, i64 0, i64 %88
  call void @ff_vlc_free(ptr noundef %89)
  br label %90

90:                                               ; preds = %80
  %91 = load i32, ptr %5, align 4, !tbaa !36
  %92 = add nsw i32 %91, 1
  store i32 %92, ptr %5, align 4, !tbaa !36
  br label %77, !llvm.loop !69

93:                                               ; preds = %77
  br label %94

94:                                               ; preds = %93
  %95 = load i32, ptr %4, align 4, !tbaa !36
  %96 = add nsw i32 %95, 1
  store i32 %96, ptr %4, align 4, !tbaa !36
  br label %10, !llvm.loop !70

97:                                               ; preds = %10
  call void @llvm.lifetime.end.p0(i64 4, ptr %6) #10
  call void @llvm.lifetime.end.p0(i64 4, ptr %5) #10
  call void @llvm.lifetime.end.p0(i64 4, ptr %4) #10
  call void @llvm.lifetime.end.p0(i64 8, ptr %3) #10
  ret i32 0
}