; Function Attrs: cold nounwind optsize uwtable
define internal noundef i32 @decode_close(ptr noundef readonly captures(none) %0) #0 {
  %2 = getelementptr inbounds nuw i8, ptr %0, i64 32
  %3 = load ptr, ptr %2, align 8, !tbaa !4
  %4 = getelementptr inbounds nuw i8, ptr %3, i64 8
  br label %5

5:                                                ; preds = %1, %19
  %indvars.iv48 = phi i64 [ 0, %1 ], [ %indvars.iv.next49, %19 ]
  %6 = getelementptr inbounds nuw [3 x %struct.VLCSet], ptr %4, i64 0, i64 %indvars.iv48
  tail call void @ff_vlc_free(ptr noundef nonnull %6) #10
  %7 = getelementptr inbounds nuw i8, ptr %6, i64 24
  tail call void @ff_vlc_free(ptr noundef nonnull %7) #10
  %8 = getelementptr inbounds nuw i8, ptr %6, i64 48
  tail call void @ff_vlc_free(ptr noundef nonnull %8) #10
  %9 = getelementptr inbounds nuw i8, ptr %6, i64 72
  br label %.preheader

.preheader29:                                     ; preds = %13
  %10 = getelementptr inbounds nuw i8, ptr %6, i64 2712
  br label %15

.preheader:                                       ; preds = %5, %13
  %indvars.iv36 = phi i64 [ 0, %5 ], [ %indvars.iv.next37, %13 ]
  br label %11

11:                                               ; preds = %.preheader, %11
  %indvars.iv = phi i64 [ 0, %.preheader ], [ %indvars.iv.next, %11 ]
  %12 = getelementptr inbounds nuw [10 x [11 x %struct.VLC]], ptr %9, i64 0, i64 %indvars.iv36, i64 %indvars.iv
  tail call void @ff_vlc_free(ptr noundef nonnull %12) #10
  %indvars.iv.next = add nuw nsw i64 %indvars.iv, 1
  %exitcond.not = icmp eq i64 %indvars.iv.next, 11
  br i1 %exitcond.not, label %13, label %11, !llvm.loop !88

13:                                               ; preds = %11
  %indvars.iv.next37 = add nuw nsw i64 %indvars.iv36, 1
  %exitcond39.not = icmp eq i64 %indvars.iv.next37, 10
  br i1 %exitcond39.not, label %.preheader29, label %.preheader, !llvm.loop !89

.preheader28:                                     ; preds = %15
  %14 = getelementptr inbounds nuw i8, ptr %6, i64 3072
  br label %17

15:                                               ; preds = %.preheader29, %15
  %indvars.iv40 = phi i64 [ 0, %.preheader29 ], [ %indvars.iv.next41, %15 ]
  %16 = getelementptr inbounds nuw [15 x %struct.VLC], ptr %10, i64 0, i64 %indvars.iv40
  tail call void @ff_vlc_free(ptr noundef nonnull %16) #10
  %indvars.iv.next41 = add nuw nsw i64 %indvars.iv40, 1
  %exitcond43.not = icmp eq i64 %indvars.iv.next41, 15
  br i1 %exitcond43.not, label %.preheader28, label %15, !llvm.loop !90

17:                                               ; preds = %.preheader28, %17
  %indvars.iv44 = phi i64 [ 0, %.preheader28 ], [ %indvars.iv.next45, %17 ]
  %18 = getelementptr inbounds nuw [125 x %struct.VLC], ptr %14, i64 0, i64 %indvars.iv44
  tail call void @ff_vlc_free(ptr noundef nonnull %18) #10
  %indvars.iv.next45 = add nuw nsw i64 %indvars.iv44, 1
  %exitcond47.not = icmp eq i64 %indvars.iv.next45, 125
  br i1 %exitcond47.not, label %19, label %17, !llvm.loop !91

19:                                               ; preds = %17
  %indvars.iv.next49 = add nuw nsw i64 %indvars.iv48, 1
  %exitcond51.not = icmp eq i64 %indvars.iv.next49, 3
  br i1 %exitcond51.not, label %20, label %5, !llvm.loop !92

20:                                               ; preds = %19
  ret i32 0
}